target datalayout = "e-m:e-p270:32:32-p271:32:32-p272:64:64-i64:64-i128:128-f80:128-n8:16:32:64-S128"
target triple = "x86_64-unknown-linux-gnu"

%"class.cvc5::internal::NodeTemplate.28" = type { ptr }
%"class.cvc5::internal::theory::arith::linear::ArithVariables::LowerBoundCleanUp" = type { ptr }
%"class.cvc5::internal::theory::arith::linear::ArithVariables::UpperBoundCleanUp" = type { ptr }
%"class.cvc5::internal::theory::arith::linear::ArithVariables" = type { %"class.cvc5::internal::DenseMap", %"class.cvc5::internal::DenseMap.5", i32, %"class.std::vector", %"class.std::vector", %"class.std::unordered_map", %"class.cvc5::internal::DenseMap.16", i8, %"class.cvc5::context::CDList", %"class.cvc5::context::CDList.27", i8, %"class.cvc5::internal::Rational", %"class.cvc5::internal::theory::arith::linear::DeltaComputeCallback" }
%"class.cvc5::internal::DenseMap" = type { %"class.std::vector", %"class.std::vector", %"class.std::vector.0" }
%"class.std::vector.0" = type { %"struct.std::_Vector_base.1" }
%"struct.std::_Vector_base.1" = type { %"struct.std::_Vector_base<cvc5::internal::theory::arith::linear::ArithVariables::VarInfo, std::allocator<cvc5::internal::theory::arith::linear::ArithVariables::VarInfo>>::_Vector_impl" }
%"struct.std::_Vector_base<cvc5::internal::theory::arith::linear::ArithVariables::VarInfo, std::allocator<cvc5::internal::theory::arith::linear::ArithVariables::VarInfo>>::_Vector_impl" = type { %"struct.std::_Vector_base<cvc5::internal::theory::arith::linear::ArithVariables::VarInfo, std::allocator<cvc5::internal::theory::arith::linear::ArithVariables::VarInfo>>::_Vector_impl_data" }
%"struct.std::_Vector_base<cvc5::internal::theory::arith::linear::ArithVariables::VarInfo, std::allocator<cvc5::internal::theory::arith::linear::ArithVariables::VarInfo>>::_Vector_impl_data" = type { ptr, ptr, ptr }
%"class.cvc5::internal::DenseMap.5" = type { %"class.std::vector", %"class.std::vector", %"class.std::vector.6" }
%"class.std::vector.6" = type { %"struct.std::_Vector_base.7" }
%"struct.std::_Vector_base.7" = type { %"struct.std::_Vector_base<cvc5::internal::DeltaRational, std::allocator<cvc5::internal::DeltaRational>>::_Vector_impl" }
%"struct.std::_Vector_base<cvc5::internal::DeltaRational, std::allocator<cvc5::internal::DeltaRational>>::_Vector_impl" = type { %"struct.std::_Vector_base<cvc5::internal::DeltaRational, std::allocator<cvc5::internal::DeltaRational>>::_Vector_impl_data" }
%"struct.std::_Vector_base<cvc5::internal::DeltaRational, std::allocator<cvc5::internal::DeltaRational>>::_Vector_impl_data" = type { ptr, ptr, ptr }
%"class.std::vector" = type { %"struct.std::_Vector_base" }
%"struct.std::_Vector_base" = type { %"struct.std::_Vector_base<unsigned int, std::allocator<unsigned int>>::_Vector_impl" }
%"struct.std::_Vector_base<unsigned int, std::allocator<unsigned int>>::_Vector_impl" = type { %"struct.std::_Vector_base<unsigned int, std::allocator<unsigned int>>::_Vector_impl_data" }
%"struct.std::_Vector_base<unsigned int, std::allocator<unsigned int>>::_Vector_impl_data" = type { ptr, ptr, ptr }
%"class.std::unordered_map" = type { %"class.std::_Hashtable" }
%"class.std::_Hashtable" = type { ptr, i64, %"struct.std::__detail::_Hash_node_base", i64, %"struct.std::__detail::_Prime_rehash_policy", ptr }
%"struct.std::__detail::_Hash_node_base" = type { ptr }
%"struct.std::__detail::_Prime_rehash_policy" = type { float, i64 }
%"class.cvc5::internal::DenseMap.16" = type { %"class.std::vector", %"class.std::vector", %"class.std::vector.17" }
%"class.std::vector.17" = type { %"struct.std::_Vector_base.18" }
%"struct.std::_Vector_base.18" = type { %"struct.std::_Vector_base<cvc5::internal::theory::arith::linear::BoundsInfo, std::allocator<cvc5::internal::theory::arith::linear::BoundsInfo>>::_Vector_impl" }
%"struct.std::_Vector_base<cvc5::internal::theory::arith::linear::BoundsInfo, std::allocator<cvc5::internal::theory::arith::linear::BoundsInfo>>::_Vector_impl" = type { %"struct.std::_Vector_base<cvc5::internal::theory::arith::linear::BoundsInfo, std::allocator<cvc5::internal::theory::arith::linear::BoundsInfo>>::_Vector_impl_data" }
%"struct.std::_Vector_base<cvc5::internal::theory::arith::linear::BoundsInfo, std::allocator<cvc5::internal::theory::arith::linear::BoundsInfo>>::_Vector_impl_data" = type { ptr, ptr, ptr }
%"class.cvc5::context::CDList" = type { %"class.cvc5::context::ContextObj", %"class.std::vector.22", i64, i8, %"class.cvc5::internal::theory::arith::linear::ArithVariables::LowerBoundCleanUp" }
%"class.cvc5::context::ContextObj" = type { ptr, ptr, ptr, ptr, ptr }
%"class.std::vector.22" = type { %"struct.std::_Vector_base.23" }
%"struct.std::_Vector_base.23" = type { %"struct.std::_Vector_base<std::pair<unsigned int, cvc5::internal::theory::arith::linear::Constraint *>, std::allocator<std::pair<unsigned int, cvc5::internal::theory::arith::linear::Constraint *>>>::_Vector_impl" }
%"struct.std::_Vector_base<std::pair<unsigned int, cvc5::internal::theory::arith::linear::Constraint *>, std::allocator<std::pair<unsigned int, cvc5::internal::theory::arith::linear::Constraint *>>>::_Vector_impl" = type { %"struct.std::_Vector_base<std::pair<unsigned int, cvc5::internal::theory::arith::linear::Constraint *>, std::allocator<std::pair<unsigned int, cvc5::internal::theory::arith::linear::Constraint *>>>::_Vector_impl_data" }
%"struct.std::_Vector_base<std::pair<unsigned int, cvc5::internal::theory::arith::linear::Constraint *>, std::allocator<std::pair<unsigned int, cvc5::internal::theory::arith::linear::Constraint *>>>::_Vector_impl_data" = type { ptr, ptr, ptr }
%"class.cvc5::context::CDList.27" = type { %"class.cvc5::context::ContextObj", %"class.std::vector.22", i64, i8, %"class.cvc5::internal::theory::arith::linear::ArithVariables::UpperBoundCleanUp" }
%"class.cvc5::internal::Rational" = type { %class.__gmp_expr }
%class.__gmp_expr = type { [1 x %struct.__mpq_struct] }
%struct.__mpq_struct = type { %struct.__mpz_struct, %struct.__mpz_struct }
%struct.__mpz_struct = type { i32, i32, ptr }
%"class.cvc5::internal::theory::arith::linear::DeltaComputeCallback" = type { %"class.cvc5::internal::theory::arith::linear::RationalCallBack", ptr }
%"class.cvc5::internal::theory::arith::linear::RationalCallBack" = type { ptr }
%"class.cvc5::internal::theory::arith::linear::ArithVariables::VarInfo" = type <{ i32, [4 x i8], %"class.cvc5::internal::DeltaRational", ptr, ptr, i32, i32, i32, i32, %"class.cvc5::internal::NodeTemplate.28", i8, [7 x i8] }>
%"class.cvc5::internal::DeltaRational" = type { %"class.cvc5::internal::Rational", %"class.cvc5::internal::Rational" }

; Function Attrs: mustprogress nounwind uwtable
define linkonce_odr hidden noundef nonnull align 8 dereferenceable(113) ptr @_ZNKSt6vectorIN4cvc58internal6theory5arith6linear14ArithVariables7VarInfoESaIS6_EEixEm(ptr noundef nonnull align 8 dereferenceable(24) %this, i64 noundef %__n) #5 comdat align 2 {
entry:
  %this.addr = alloca ptr, align 8
  %__n.addr = alloca i64, align 8
  store ptr %this, ptr %this.addr, align 8
  store i64 %__n, ptr %__n.addr, align 8
  %this1 = load ptr, ptr %this.addr, align 8
  %_M_impl = getelementptr inbounds %"struct.std::_Vector_base.1", ptr %this1, i32 0, i32 0
  %_M_start = getelementptr inbounds %"struct.std::_Vector_base<cvc5::internal::theory::arith::linear::ArithVariables::VarInfo, std::allocator<cvc5::internal::theory::arith::linear::ArithVariables::VarInfo>>::_Vector_impl_data", ptr %_M_impl, i32 0, i32 0
  %0 = load ptr, ptr %_M_start, align 8
  %1 = load i64, ptr %__n.addr, align 8
  %add.ptr = getelementptr inbounds %"class.cvc5::internal::theory::arith::linear::ArithVariables::VarInfo", ptr %0, i64 %1
  ret ptr %add.ptr
}

; Function Attrs: mustprogress nounwind uwtable
define linkonce_odr hidden noundef nonnull align 8 dereferenceable(113) ptr @_ZNK4cvc58internal8DenseMapINS0_6theory5arith6linear14ArithVariables7VarInfoEEixEj(ptr noundef nonnull align 8 dereferenceable(72) %this, i32 noundef %key) #5 comdat align 2 {
entry:
  %this.addr = alloca ptr, align 8
  %key.addr = alloca i32, align 4
  store ptr %this, ptr %this.addr, align 8
  store i32 %key, ptr %key.addr, align 4
  %this1 = load ptr, ptr %this.addr, align 8
  %d_image = getelementptr inbounds %"class.cvc5::internal::DenseMap", ptr %this1, i32 0, i32 2
  %0 = load i32, ptr %key.addr, align 4
  %conv = zext i32 %0 to i64
  %call = call noundef nonnull align 8 dereferenceable(113) ptr @_ZNKSt6vectorIN4cvc58internal6theory5arith6linear14ArithVariables7VarInfoESaIS6_EEixEm(ptr noundef nonnull align 8 dereferenceable(24) %d_image, i64 noundef %conv) #3
  ret ptr %call
}

; Function Attrs: mustprogress uwtable
define hidden noundef zeroext i1 @_ZNK4cvc58internal6theory5arith6linear14ArithVariables22assignmentIsConsistentEj(ptr noundef nonnull align 8 dereferenceable(568) %this, i32 noundef %x) #4 align 2 {
entry:
  %this.addr = alloca ptr, align 8
  %x.addr = alloca i32, align 4
  store ptr %this, ptr %this.addr, align 8
  store i32 %x, ptr %x.addr, align 4
  %this1 = load ptr, ptr %this.addr, align 8
  %d_vars = getelementptr inbounds %"class.cvc5::internal::theory::arith::linear::ArithVariables", ptr %this1, i32 0, i32 0
  %0 = load i32, ptr %x.addr, align 4
  %call = call noundef nonnull align 8 dereferenceable(113) ptr @_ZNK4cvc58internal8DenseMapINS0_6theory5arith6linear14ArithVariables7VarInfoEEixEj(ptr noundef nonnull align 8 dereferenceable(72) %d_vars, i32 noundef %0)
  %d_cmpAssignmentLB = getelementptr inbounds %"class.cvc5::internal::theory::arith::linear::ArithVariables::VarInfo", ptr %call, i32 0, i32 5
  %1 = load i32, ptr %d_cmpAssignmentLB, align 8
  %cmp = icmp sge i32 %1, 0
  br i1 %cmp, label %land.rhs, label %land.end

land.rhs:                                         ; preds = %entry
  %d_vars2 = getelementptr inbounds %"class.cvc5::internal::theory::arith::linear::ArithVariables", ptr %this1, i32 0, i32 0
  %2 = load i32, ptr %x.addr, align 4
  %call3 = call noundef nonnull align 8 dereferenceable(113) ptr @_ZNK4cvc58internal8DenseMapINS0_6theory5arith6linear14ArithVariables7VarInfoEEixEj(ptr noundef nonnull align 8 dereferenceable(72) %d_vars2, i32 noundef %2)
  %d_cmpAssignmentUB = getelementptr inbounds %"class.cvc5::internal::theory::arith::linear::ArithVariables::VarInfo", ptr %call3, i32 0, i32 6
  %3 = load i32, ptr %d_cmpAssignmentUB, align 4
  %cmp4 = icmp sle i32 %3, 0
  br label %land.end

land.end:                                         ; preds = %land.rhs, %entry
  %4 = phi i1 [ false, %entry ], [ %cmp4, %land.rhs ]
  ret i1 %4
}