; Function Attrs: mustprogress nofree norecurse nosync nounwind willreturn memory(read, inaccessiblemem: none) uwtable
define hidden noundef zeroext i1 @_ZNK4cvc58internal6theory5arith6linear14ArithVariables22assignmentIsConsistentEj(ptr nocapture noundef nonnull readonly align 8 dereferenceable(568) %this, i32 noundef %x) local_unnamed_addr #7 align 2 {
entry:
  %d_image.i = getelementptr inbounds i8, ptr %this, i64 48
  %conv.i = zext i32 %x to i64
  %0 = load ptr, ptr %d_image.i, align 8
  %add.ptr.i.i = getelementptr inbounds %"class.cvc5::internal::theory::arith::linear::ArithVariables::VarInfo", ptr %0, i64 %conv.i
  %d_cmpAssignmentLB = getelementptr inbounds i8, ptr %add.ptr.i.i, i64 88
  %1 = load i32, ptr %d_cmpAssignmentLB, align 8
  %cmp = icmp sgt i32 %1, -1
  br i1 %cmp, label %land.rhs, label %land.end

land.rhs:                                         ; preds = %entry
  %d_cmpAssignmentUB = getelementptr inbounds i8, ptr %add.ptr.i.i, i64 92
  %2 = load i32, ptr %d_cmpAssignmentUB, align 4
  %cmp4 = icmp slt i32 %2, 1
  br label %land.end

land.end:                                         ; preds = %land.rhs, %entry
  %3 = phi i1 [ false, %entry ], [ %cmp4, %land.rhs ]
  ret i1 %3
}